target datalayout = "e-m:e-p270:32:32-p271:32:32-p272:64:64-i64:64-i128:128-f80:128-n8:16:32:64-S128"
target triple = "x86_64-pc-linux-gnu"

; Function Attrs: nounwind uwtable
define hidden i32 @PixelForUshort4444Argb(ptr noundef %0, i32 noundef %1) #1 {
  %3 = alloca ptr, align 8
  %4 = alloca i32, align 4
  store ptr %0, ptr %3, align 8
  store i32 %1, ptr %4, align 4
  %5 = load i32, ptr %4, align 4
  %6 = shl i32 %5, 8
  %7 = and i32 %6, 61440
  %8 = load i32, ptr %4, align 4
  %9 = shl i32 %8, 4
  %10 = and i32 %9, 3840
  %11 = or i32 %7, %10
  %12 = load i32, ptr %4, align 4
  %13 = shl i32 %12, 0
  %14 = and i32 %13, 240
  %15 = or i32 %11, %14
  %16 = load i32, ptr %4, align 4
  %17 = ashr i32 %16, 4
  %18 = and i32 %17, 15
  %19 = or i32 %15, %18
  %20 = trunc i32 %19 to i16
  %21 = zext i16 %20 to i32
  ret i32 %21
}