; Function Attrs: mustprogress nofree norecurse nosync nounwind willreturn memory(none) uwtable
define hidden range(i32 0, 65536) i32 @PixelForUshort4444Argb(ptr nocapture noundef readnone %0, i32 noundef %1) local_unnamed_addr #3 {
  %3 = shl i32 %1, 8
  %4 = and i32 %3, 61440
  %5 = shl i32 %1, 4
  %6 = and i32 %5, 3840
  %7 = and i32 %1, 240
  %8 = lshr i32 %1, 4
  %9 = and i32 %8, 15
  %10 = or disjoint i32 %6, %7
  %11 = or disjoint i32 %10, %4
  %12 = or disjoint i32 %11, %9
  ret i32 %12
}